Certificate:
    Data:
        Version: 3 (0x2)
        Serial Number:
            ac:a1:98:10:47:73:d0:69:63:5b:37:6c:2a:be:b6:5a
        Signature Algorithm: sha256WithRSAEncryption
        Issuer: CN=iposv3
        Validity
            Not Before: Apr 11 16:50:57 2025 GMT
            Not After : Jul 15 16:50:57 2027 GMT
        Subject: CN=server
        Subject Public Key Info:
            Public Key Algorithm: rsaEncryption
                Public-Key: (2048 bit)
                Modulus:
                    00:d4:5d:7f:94:d8:b5:c8:a0:51:35:62:fe:88:da:
                    31:5a:17:b1:10:c6:09:e2:e6:81:0f:f7:e4:0e:84:
                    48:08:32:d1:9b:43:a5:0a:57:e2:33:b9:d1:b5:b3:
                    23:e8:c9:20:f0:5e:de:6a:0b:5d:52:ed:a5:a8:2d:
                    d0:4b:fe:97:3a:99:f0:04:51:2b:8f:ca:b6:a3:f5:
                    26:fa:c3:3e:74:1a:62:8c:47:c1:1b:80:f2:11:13:
                    1b:92:c3:1b:cd:bc:ce:61:b5:aa:08:d8:91:5b:80:
                    86:55:35:f8:2b:4d:86:c3:f1:1a:9e:1d:44:a5:ab:
                    b4:c3:54:48:df:6c:a3:af:d5:0d:c2:81:4f:58:87:
                    d6:b6:cc:25:4d:54:46:80:80:a6:8d:6c:d6:08:61:
                    8e:76:e9:56:bc:fb:78:0c:79:34:6f:9c:83:51:6c:
                    b7:66:fd:08:29:ed:a1:fe:8b:68:69:5d:65:03:33:
                    be:bd:a5:15:6c:b1:9a:3c:ea:aa:85:a6:52:ae:6e:
                    03:1a:64:d8:b6:f4:e7:59:8c:87:2c:62:ea:cd:d7:
                    06:a2:69:06:60:91:71:99:f5:88:6a:12:b4:9a:92:
                    7e:e2:39:ea:55:d1:d5:77:8a:0e:25:ec:df:c4:e7:
                    45:28:2e:90:c9:5a:6c:72:e9:85:f8:19:eb:14:58:
                    f6:c9
                Exponent: 65537 (0x10001)
        X509v3 extensions:
            X509v3 Basic Constraints: 
                CA:FALSE
            X509v3 Subject Key Identifier: 
                BD:7E:95:40:E6:4C:EC:EA:35:A5:94:6D:4B:3F:05:C7:EF:39:00:D4
            X509v3 Authority Key Identifier: 
                keyid:D8:4E:13:C1:FC:7A:15:39:13:B7:05:27:B4:C2:DD:6F:56:BA:AB:BE
                DirName:/CN=iposv3
                serial:74:30:71:5E:37:17:E7:CC:02:0F:CC:46:D2:DA:F0:5F:E6:0D:51:5C
            X509v3 Extended Key Usage: 
                TLS Web Server Authentication
            X509v3 Key Usage: 
                Digital Signature, Key Encipherment
            X509v3 Subject Alternative Name: 
                DNS:server
    Signature Algorithm: sha256WithRSAEncryption
    Signature Value:
        77:7b:ff:ef:c2:8d:78:d6:6d:70:3c:b0:4f:57:c8:ab:cc:4c:
        3b:60:1a:16:1f:31:86:9c:c6:15:1b:3d:66:fb:2c:44:1a:c8:
        4b:b7:91:5e:11:67:04:d1:9d:6c:79:6c:90:d7:d5:2a:ed:c7:
        ec:8f:87:f1:70:98:b8:70:07:7b:9a:c1:ae:2b:bf:24:d3:3c:
        00:40:66:77:07:c8:f0:63:10:f1:a0:2e:44:2f:93:ba:96:0f:
        f1:5e:e1:c7:e4:e4:a8:0d:3e:f4:87:be:44:28:43:ff:25:d6:
        4f:db:17:81:4a:be:e7:d7:ed:4c:be:bc:99:bf:5f:82:51:39:
        da:64:08:39:59:e2:87:fb:74:d3:4b:51:d6:7e:80:dc:70:17:
        ad:6f:1c:7b:35:a3:f7:a3:b4:b6:cf:26:6b:aa:fc:65:2b:43:
        6d:23:30:17:48:11:f8:1b:7f:a6:6d:0c:1c:0e:50:61:5e:22:
        28:d5:f5:db:b0:6f:fc:a6:73:25:40:fd:15:c8:45:8b:9a:e2:
        b9:4b:3f:3f:b5:b7:8e:81:d0:93:2e:0d:b8:e2:28:56:01:22:
        4d:82:fd:7f:4b:a4:5f:37:55:78:ed:58:3a:0f:08:be:96:d8:
        12:42:c1:c9:3b:e5:7d:d4:4f:52:c9:1d:c6:a4:75:03:b9:8d:
        16:05:61:f7
-----BEGIN CERTIFICATE-----
MIIDXjCCAkagAwIBAgIRAKyhmBBHc9BpY1s3bCq+tlowDQYJKoZIhvcNAQELBQAw
ETEPMA0GA1UEAwwGaXBvc3YzMB4XDTI1MDQxMTE2NTA1N1oXDTI3MDcxNTE2NTA1
N1owETEPMA0GA1UEAwwGc2VydmVyMIIBIjANBgkqhkiG9w0BAQEFAAOCAQ8AMIIB
CgKCAQEA1F1/lNi1yKBRNWL+iNoxWhexEMYJ4uaBD/fkDoRICDLRm0OlClfiM7nR
tbMj6Mkg8F7eagtdUu2lqC3QS/6XOpnwBFErj8q2o/Um+sM+dBpijEfBG4DyERMb
ksMbzbzOYbWqCNiRW4CGVTX4K02Gw/Eanh1Epau0w1RI32yjr9UNwoFPWIfWtswl
TVRGgICmjWzWCGGOdulWvPt4DHk0b5yDUWy3Zv0IKe2h/otoaV1lAzO+vaUVbLGa
POqqhaZSrm4DGmTYtvTnWYyHLGLqzdcGomkGYJFxmfWIahK0mpJ+4jnqVdHVd4oO
JezfxOdFKC6QyVpscumF+BnrFFj2yQIDAQABo4GwMIGtMAkGA1UdEwQCMAAwHQYD
VR0OBBYEFL1+lUDmTOzqNaWUbUs/BcfvOQDUMEwGA1UdIwRFMEOAFNhOE8H8ehU5
E7cFJ7TC3W9Wuqu+oRWkEzARMQ8wDQYDVQQDDAZpcG9zdjOCFHQwcV43F+fMAg/M
RtLa8F/mDVFcMBMGA1UdJQQMMAoGCCsGAQUFBwMBMAsGA1UdDwQEAwIFoDARBgNV
HREECjAIggZzZXJ2ZXIwDQYJKoZIhvcNAQELBQADggEBAHd7/+/CjXjWbXA8sE9X
yKvMTDtgGhYfMYacxhUbPWb7LEQayEu3kV4RZwTRnWx5bJDX1Srtx+yPh/FwmLhw
B3uawa4rvyTTPABAZncHyPBjEPGgLkQvk7qWD/Fe4cfk5KgNPvSHvkQoQ/8l1k/b
F4FKvufX7Uy+vJm/X4JROdpkCDlZ4of7dNNLUdZ+gNxwF61vHHs1o/ejtLbPJmuq
/GUrQ20jMBdIEfgbf6ZtDBwOUGFeIijV9duwb/ymcyVA/RXIRYua4rlLPz+1t46B
0JMuDbjiKFYBIk2C/X9LpF83VXjtWDoPCL6W2BJCwck75X3UT1LJHcakdQO5jRYF
Yfc=
-----END CERTIFICATE-----
